Certificate:
    Data:
        Version: 3 (0x2)
        Serial Number: 1048578 (0x100002)
        Signature Algorithm: sha1WithRSAEncryption
        Issuer: C=US, ST=New Jersey, O=localdomain
        Validity
            Not Before: Nov  2 13:22:01 2011 GMT
            Not After : Nov  1 13:22:01 2012 GMT
        Subject: C=AU, ST=Some-State, O=Internet Widgits Pty Ltd, CN=client
        Subject Public Key Info:
            Public Key Algorithm: rsaEncryption
                Public-Key: (2048 bit)
                Modulus:
                    00:aa:9f:7e:e9:2e:17:76:45:a2:14:06:c6:88:f6:
                    d9:44:c1:ef:d9:9a:c9:8d:9e:94:3a:97:86:a3:b1:
                    16:b7:2a:a0:3e:88:15:f5:d7:f8:52:c5:b0:60:7f:
                    cb:c4:11:d3:2e:21:eb:db:50:8b:2e:eb:f6:79:cb:
                    d1:4b:d3:60:17:d8:38:a5:ca:6e:7b:79:8e:83:9a:
                    46:19:55:17:d4:b0:26:96:da:63:4e:a2:c5:75:4e:
                    2a:7a:dd:e4:93:f9:56:12:b7:04:b8:23:a3:ae:f4:
                    9a:65:84:f2:66:5e:1c:af:c2:8b:38:34:af:29:80:
                    48:f8:7c:95:1f:3b:40:d7:95:fe:30:b6:0a:ee:7a:
                    ce:8f:2f:85:31:b7:78:b0:3b:39:93:cc:bf:1e:a3:
                    07:85:5a:1f:1f:2d:6d:aa:42:cc:de:0e:f6:13:b3:
                    86:f4:e3:ff:3c:ef:eb:e3:b1:fa:76:6c:d4:01:1e:
                    b8:df:03:89:15:50:70:e9:7d:0a:2e:b0:e3:e0:01:
                    13:50:16:7a:64:bd:33:32:bd:4f:0e:b8:64:40:e3:
                    9a:be:cf:92:ee:8d:25:52:56:b8:7b:75:8d:c1:70:
                    83:ad:44:6d:89:42:c3:62:c8:b0:3e:8e:8b:31:69:
                    3c:f5:d7:f3:34:8f:2a:56:d6:28:48:f2:ed:13:7e:
                    80:4d
                Exponent: 65537 (0x10001)
        X509v3 extensions:
            X509v3 Subject Key Identifier: 
                3F:C4:2E:A3:67:C7:86:54:19:B7:50:7F:38:90:02:64:01:AC:3C:22
            X509v3 Basic Constraints: 
                CA:FALSE
            X509v3 Key Usage: 
                Digital Signature, Non Repudiation, Key Encipherment
            Netscape Cert Type: 
                SSL Client, S/MIME
            Netscape Comment: 
                OpenSSL Generated Certificate
            X509v3 Authority Key Identifier: 
                keyid:18:5F:82:44:DC:54:98:81:D9:D6:B2:F3:E7:B3:54:C7:95:B0:21:3A
                DirName:/C=US/ST=New Jersey/O=localdomain
                serial:92:E7:C7:6D:96:71:CF:6A

    Signature Algorithm: sha1WithRSAEncryption
        1d:25:30:5f:e1:d2:6b:b4:50:03:08:1a:32:0e:83:d9:20:47:
        e4:fe:63:83:e8:8a:19:af:f9:6c:6c:a2:90:1f:c7:fe:de:55:
        c0:9c:2b:20:9e:e3:7f:b4:de:e4:15:04:2b:df:29:7e:96:8b:
        97:67:fc:4f:d5:05:e7:b2:6b:b6:8c:88:a2:0d:70:0a:ff:82:
        30:32:8d:e3:bd:65:3f:a0:5c:04:ae:9d:7f:23:4c:39:74:fa:
        25:1d:29:d8:e9:cf:90:96:3e:2d:f2:4c:66:0b:55:00:16:b2:
        b4:37:26:18:7b:d9:4b:c6:09:a4:8b:6c:a6:25:e0:56:be:be:
        16:81
-----BEGIN CERTIFICATE-----
MIIDcDCCAtmgAwIBAgIDEAACMA0GCSqGSIb3DQEBBQUAMDgxCzAJBgNVBAYTAlVT
MRMwEQYDVQQIDApOZXcgSmVyc2V5MRQwEgYDVQQKDAtsb2NhbGRvbWFpbjAeFw0x
MTExMDIxMzIyMDFaFw0xMjExMDExMzIyMDFaMFYxCzAJBgNVBAYTAkFVMRMwEQYD
VQQIDApTb21lLVN0YXRlMSEwHwYDVQQKDBhJbnRlcm5ldCBXaWRnaXRzIFB0eSBM
dGQxDzANBgNVBAMMBmNsaWVudDCCASIwDQYJKoZIhvcNAQEBBQADggEPADCCAQoC
ggEBAKqffukuF3ZFohQGxoj22UTB79mayY2elDqXhqOxFrcqoD6IFfXX+FLFsGB/
y8QR0y4h69tQiy7r9nnL0UvTYBfYOKXKbnt5joOaRhlVF9SwJpbaY06ixXVOKnrd
5JP5VhK3BLgjo670mmWE8mZeHK/Cizg0rymASPh8lR87QNeV/jC2Cu56zo8vhTG3
eLA7OZPMvx6jB4VaHx8tbapCzN4O9hOzhvTj/zzv6+Ox+nZs1AEeuN8DiRVQcOl9
Ci6w4+ABE1AWemS9MzK9Tw64ZEDjmr7Pku6NJVJWuHt1jcFwg61EbYlCw2LIsD6O
izFpPPXX8zSPKlbWKEjy7RN+gE0CAwEAAaOB5TCB4jAdBgNVHQ4EFgQUP8Quo2fH
hlQZt1B/OJACZAGsPCIwCQYDVR0TBAIwADALBgNVHQ8EBAMCBeAwEQYJYIZIAYb4
QgEBBAQDAgWgMCwGCWCGSAGG+EIBDQQfFh1PcGVuU1NMIEdlbmVyYXRlZCBDZXJ0
aWZpY2F0ZTBoBgNVHSMEYTBfgBQYX4JE3FSYgdnWsvPns1THlbAhOqE8pDowODEL
MAkGA1UEBhMCVVMxEzARBgNVBAgMCk5ldyBKZXJzZXkxFDASBgNVBAoMC2xvY2Fs
ZG9tYWluggkAkufHbZZxz2owDQYJKoZIhvcNAQEFBQADgYEAHSUwX+HSa7RQAwga
Mg6D2SBH5P5jg+iKGa/5bGyikB/H/t5VwJwrIJ7jf7Te5BUEK98pfpaLl2f8T9UF
57JrtoyIog1wCv+CMDKN471lP6BcBK6dfyNMOXT6JR0p2OnPkJY+LfJMZgtVABay
tDcmGHvZS8YJpItspiXgVr6+FoE=
-----END CERTIFICATE-----
