Certificate:
    Data:
        Version: 3 (0x2)
        Serial Number: 1048577 (0x100001)
        Signature Algorithm: sha1WithRSAEncryption
        Issuer: C=US, ST=New Jersey, O=localdomain
        Validity
            Not Before: Nov  9 11:00:55 2011 GMT
            Not After : Nov  8 11:00:55 2012 GMT
        Subject: C=AU, ST=Some-State, O=Internet Widgits Pty Ltd, CN=keyserver
        Subject Public Key Info:
            Public Key Algorithm: rsaEncryption
                Public-Key: (2048 bit)
                Modulus:
                    00:9e:eb:cb:71:89:1d:83:fa:2d:fb:45:98:47:e2:
                    f0:46:49:5a:1c:fd:7a:5c:4e:5d:c5:33:e1:89:65:
                    78:b7:5d:f0:73:d6:c3:71:2d:f8:d9:c5:0d:7e:c0:
                    41:2f:bf:8c:57:5f:31:07:d4:29:a9:1d:fa:63:ba:
                    a7:01:e2:e0:dd:83:e9:02:e6:1c:60:0e:ce:bc:a1:
                    d7:34:6a:63:9d:82:4f:03:65:5a:3e:76:9e:ec:d2:
                    8a:06:fb:f0:4f:df:70:69:fa:a6:57:63:23:42:d6:
                    45:1e:e9:db:69:07:05:c0:d9:ae:96:cf:cb:fb:2c:
                    0f:48:ba:20:e5:5a:d9:16:35:88:97:b7:10:98:46:
                    3e:8c:a6:d5:b2:d4:94:ef:b5:62:33:67:17:d7:e1:
                    7f:89:59:59:4c:a5:dd:9e:b8:51:49:af:f2:87:fd:
                    03:8e:be:63:04:63:cb:3e:18:f6:ea:14:08:3f:4f:
                    93:39:e6:7a:2c:a9:31:80:df:09:24:37:38:7f:46:
                    5c:cb:13:38:a9:6d:1f:c1:56:7f:a1:00:b7:35:b2:
                    47:94:f6:b4:32:bb:91:7a:e8:fb:a0:de:c0:db:60:
                    02:c4:f4:08:5b:a5:a6:dc:fe:ae:66:5c:ee:b1:75:
                    d6:9a:a5:86:b8:13:2a:1b:ee:db:7a:06:05:a3:bc:
                    da:ed
                Exponent: 65537 (0x10001)
        X509v3 extensions:
            X509v3 Subject Key Identifier: 
                24:4E:1E:33:64:BA:4C:98:93:99:0A:9A:AF:46:7A:92:CD:63:A3:44
            X509v3 Basic Constraints: 
                CA:FALSE
            X509v3 Key Usage: 
                Digital Signature, Non Repudiation, Key Encipherment
            Netscape Cert Type: 
                SSL Client, S/MIME
            Netscape Comment: 
                OpenSSL Generated Certificate
            X509v3 Authority Key Identifier: 
                keyid:18:5F:82:44:DC:54:98:81:D9:D6:B2:F3:E7:B3:54:C7:95:B0:21:3A
                DirName:/C=US/ST=New Jersey/O=localdomain
                serial:CA:89:0E:49:83:32:88:3C

    Signature Algorithm: sha1WithRSAEncryption
        06:fe:3b:2d:37:46:68:1a:ad:a2:a7:ab:72:d7:30:fe:f7:48:
        f9:94:ec:49:96:02:7e:44:ee:07:c5:ed:0b:60:01:d5:01:a8:
        c6:54:22:f5:8b:d0:96:d2:37:ea:0c:d5:bf:eb:10:4d:0e:ca:
        66:52:7f:33:11:04:3d:2a:f7:08:e4:33:e1:3b:2a:a3:ea:52:
        b3:ca:a6:d5:2b:a8:83:9e:02:9e:ab:15:68:2d:26:1f:f0:be:
        1f:be:4e:a8:ef:98:4a:60:a2:28:a2:81:27:c5:72:4c:10:c2:
        ce:8c:5c:2a:de:2d:80:01:13:23:08:55:44:f5:9f:7d:1b:48:
        f9:58
-----BEGIN CERTIFICATE-----
MIIDczCCAtygAwIBAgIDEAABMA0GCSqGSIb3DQEBBQUAMDgxCzAJBgNVBAYTAlVT
MRMwEQYDVQQIDApOZXcgSmVyc2V5MRQwEgYDVQQKDAtsb2NhbGRvbWFpbjAeFw0x
MTExMDkxMTAwNTVaFw0xMjExMDgxMTAwNTVaMFkxCzAJBgNVBAYTAkFVMRMwEQYD
VQQIDApTb21lLVN0YXRlMSEwHwYDVQQKDBhJbnRlcm5ldCBXaWRnaXRzIFB0eSBM
dGQxEjAQBgNVBAMMCWtleXNlcnZlcjCCASIwDQYJKoZIhvcNAQEBBQADggEPADCC
AQoCggEBAJ7ry3GJHYP6LftFmEfi8EZJWhz9elxOXcUz4YlleLdd8HPWw3Et+NnF
DX7AQS+/jFdfMQfUKakd+mO6pwHi4N2D6QLmHGAOzryh1zRqY52CTwNlWj52nuzS
igb78E/fcGn6pldjI0LWRR7p22kHBcDZrpbPy/ssD0i6IOVa2RY1iJe3EJhGPoym
1bLUlO+1YjNnF9fhf4lZWUyl3Z64UUmv8of9A46+YwRjyz4Y9uoUCD9Pkznmeiyp
MYDfCSQ3OH9GXMsTOKltH8FWf6EAtzWyR5T2tDK7kXro+6DewNtgAsT0CFulptz+
rmZc7rF11pqlhrgTKhvu23oGBaO82u0CAwEAAaOB5TCB4jAdBgNVHQ4EFgQUJE4e
M2S6TJiTmQqar0Z6ks1jo0QwCQYDVR0TBAIwADALBgNVHQ8EBAMCBeAwEQYJYIZI
AYb4QgEBBAQDAgWgMCwGCWCGSAGG+EIBDQQfFh1PcGVuU1NMIEdlbmVyYXRlZCBD
ZXJ0aWZpY2F0ZTBoBgNVHSMEYTBfgBQYX4JE3FSYgdnWsvPns1THlbAhOqE8pDow
ODELMAkGA1UEBhMCVVMxEzARBgNVBAgMCk5ldyBKZXJzZXkxFDASBgNVBAoMC2xv
Y2FsZG9tYWluggkAyokOSYMyiDwwDQYJKoZIhvcNAQEFBQADgYEABv47LTdGaBqt
oqerctcw/vdI+ZTsSZYCfkTuB8XtC2AB1QGoxlQi9YvQltI36gzVv+sQTQ7KZlJ/
MxEEPSr3COQz4Tsqo+pSs8qm1Suog54CnqsVaC0mH/C+H75OqO+YSmCiKKKBJ8Vy
TBDCzoxcKt4tgAETIwhVRPWffRtI+Vg=
-----END CERTIFICATE-----
